; Function Attrs: mustprogress uwtable
define void @_ZN6google8protobuf2io25CopyingInputStreamAdaptor10FreeBufferEv(ptr nocapture noundef nonnull align 8 dereferenceable(52) %this) local_unnamed_addr #5 align 2 personality ptr @__gxx_personality_v0 {
entry:
  %ref.tmp = alloca %"class.absl::lts_20230802::log_internal::LogMessageFatal", align 8
  %backup_bytes_ = getelementptr inbounds i8, ptr %this, i64 48
  %0 = load i32, ptr %backup_bytes_, align 8
  %cmp.i.i = icmp eq i32 %0, 0
  br i1 %cmp.i.i, label %while.end, label %while.body

while.body:                                       ; preds = %entry
  %conv.i.i = sext i32 %0 to i64
  %call.i.i = tail call noundef nonnull ptr @_ZN4absl12lts_2023080212log_internal17MakeCheckOpStringIllEEPNSt7__cxx1112basic_stringIcSt11char_traitsIcESaIcEEET_T0_PKc(i64 noundef %conv.i.i, i64 noundef 0, ptr noundef nonnull @.str.13)
  %call4 = tail call { i64, ptr } @_ZNKSt7__cxx1112basic_stringIcSt11char_traitsIcESaIcEEcvSt17basic_string_viewIcS2_EEv(ptr noundef nonnull align 8 dereferenceable(32) %call.i.i) #25
  %1 = extractvalue { i64, ptr } %call4, 0
  %2 = extractvalue { i64, ptr } %call4, 1
  call void @_ZN4absl12lts_2023080212log_internal15LogMessageFatalC1EPKciSt17basic_string_viewIcSt11char_traitsIcEE(ptr noundef nonnull align 8 dereferenceable(16) %ref.tmp, ptr noundef nonnull @.str.1, i32 noundef 273, i64 %1, ptr %2) #26
  call void @_ZN4absl12lts_2023080212log_internal15LogMessageFatalD1Ev(ptr noundef nonnull align 8 dereferenceable(16) %ref.tmp) #27
  unreachable

while.end:                                        ; preds = %entry
  %buffer_used_ = getelementptr inbounds i8, ptr %this, i64 44
  store i32 0, ptr %buffer_used_, align 4
  %buffer_ = getelementptr inbounds i8, ptr %this, i64 32
  %3 = load ptr, ptr %buffer_, align 8
  store ptr null, ptr %buffer_, align 8
  %tobool.not.i.i.i = icmp eq ptr %3, null
  br i1 %tobool.not.i.i.i, label %_ZNSt10unique_ptrIA_hSt14default_deleteIS0_EE5resetEDn.exit, label %_ZNKSt14default_deleteIA_hEclIhEENSt9enable_ifIXsr14is_convertibleIPA_T_PS0_EE5valueEvE4typeEPS4_.exit.i.i.i

_ZNKSt14default_deleteIA_hEclIhEENSt9enable_ifIXsr14is_convertibleIPA_T_PS0_EE5valueEvE4typeEPS4_.exit.i.i.i: ; preds = %while.end
  tail call void @_ZdaPv(ptr noundef nonnull %3) #28
  br label %_ZNSt10unique_ptrIA_hSt14default_deleteIS0_EE5resetEDn.exit

_ZNSt10unique_ptrIA_hSt14default_deleteIS0_EE5resetEDn.exit: ; preds = %while.end, %_ZNKSt14default_deleteIA_hEclIhEENSt9enable_ifIXsr14is_convertibleIPA_T_PS0_EE5valueEvE4typeEPS4_.exit.i.i.i
  ret void
}